target datalayout = "e-m:e-p270:32:32-p271:32:32-p272:64:64-i64:64-i128:128-f80:128-n8:16:32:64-S128"
target triple = "x86_64-pc-linux-gnu"

; Function Attrs: nounwind uwtable
define dso_local void @slurmdb_transfer_acct_list_2_tres(ptr noundef %0, ptr noundef %1) #0 {
  %3 = alloca ptr, align 8
  %4 = alloca ptr, align 8
  %5 = alloca ptr, align 8
  %6 = alloca ptr, align 8
  store ptr %0, ptr %3, align 8
  store ptr %1, ptr %4, align 8
  call void @llvm.lifetime.start.p0(i64 8, ptr %5) #10
  call void @llvm.lifetime.start.p0(i64 8, ptr %6) #10
  store ptr null, ptr %6, align 8
  %7 = load ptr, ptr %3, align 8
  %8 = call ptr @list_iterator_create(ptr noundef %7)
  store ptr %8, ptr %5, align 8
  br label %9

9:                                                ; preds = %13, %2
  %10 = load ptr, ptr %5, align 8
  %11 = call ptr @list_next(ptr noundef %10)
  store ptr %11, ptr %6, align 8
  %12 = icmp ne ptr %11, null
  br i1 %12, label %13, label %17

13:                                               ; preds = %9
  %14 = load ptr, ptr %6, align 8
  %15 = load ptr, ptr %4, align 8
  %16 = call i32 @slurmdb_add_accounting_to_tres_list(ptr noundef %14, ptr noundef %15)
  br label %9, !llvm.loop !61

17:                                               ; preds = %9
  %18 = load ptr, ptr %5, align 8
  call void @list_iterator_destroy(ptr noundef %18)
  call void @llvm.lifetime.end.p0(i64 8, ptr %6) #10
  call void @llvm.lifetime.end.p0(i64 8, ptr %5) #10
  ret void
}