; Function Attrs: nounwind uwtable
define dso_local void @slurmdb_transfer_acct_list_2_tres(ptr noundef %0, ptr noundef captures(none) %1) local_unnamed_addr #0 {
  %3 = tail call ptr @list_iterator_create(ptr noundef %0) #19
  %4 = tail call ptr @list_next(ptr noundef %3) #19
  %.not5 = icmp eq ptr %4, null
  br i1 %.not5, label %._crit_edge, label %.lr.ph

.lr.ph:                                           ; preds = %2, %.lr.ph
  %5 = phi ptr [ %7, %.lr.ph ], [ %4, %2 ]
  %6 = tail call i32 @slurmdb_add_accounting_to_tres_list(ptr noundef nonnull %5, ptr noundef %1)
  %7 = tail call ptr @list_next(ptr noundef %3) #19
  %.not = icmp eq ptr %7, null
  br i1 %.not, label %._crit_edge, label %.lr.ph, !llvm.loop !61

._crit_edge:                                      ; preds = %.lr.ph, %2
  tail call void @list_iterator_destroy(ptr noundef %3) #19
  ret void
}